target datalayout = "e-m:e-p270:32:32-p271:32:32-p272:64:64-i64:64-i128:128-f80:128-n8:16:32:64-S128"
target triple = "x86_64-unknown-linux-gnu"

%"union.eastl::internal::functor_storage_alignment" = type { { i64, i64 } }
%"struct.eastl::internal::functor_storage.28" = type { %union.anon.29 }
%union.anon.29 = type { %"union.eastl::internal::functor_storage_alignment" }

; Function Attrs: mustprogress uwtable
define internal void @_ZN5eastl11invoke_implIFvvEZ40TestFixedFunctionPointerToMemberFunctionvE11TestVoidRetRS2_JEEENS_9enable_ifIXsr10is_base_ofIT0_NS_5decayIT1_E4typeEEE5valueEDTcldsclsr5eastlE7forwardIS7_Efp0_Efp_spclsr5eastlE7forwardIT2_Efp1_EEEE4typeEMS5_T_OS7_DpOSA_(i64 %func.coerce0, i64 %func.coerce1, ptr noundef nonnull align 4 dereferenceable(4) %obj) #0 {
entry:
  %func = alloca { i64, i64 }, align 8
  %func.addr = alloca { i64, i64 }, align 8
  %obj.addr = alloca ptr, align 8
  %0 = getelementptr inbounds { i64, i64 }, ptr %func, i32 0, i32 0
  store i64 %func.coerce0, ptr %0, align 8
  %1 = getelementptr inbounds { i64, i64 }, ptr %func, i32 0, i32 1
  store i64 %func.coerce1, ptr %1, align 8
  %func1 = load { i64, i64 }, ptr %func, align 8
  store { i64, i64 } %func1, ptr %func.addr, align 8
  store ptr %obj, ptr %obj.addr, align 8
  %2 = load ptr, ptr %obj.addr, align 8
  %call = call noundef nonnull align 4 dereferenceable(4) ptr @_ZN5eastl7forwardIRZ40TestFixedFunctionPointerToMemberFunctionvE11TestVoidRetEEOT_RNS_16remove_referenceIS3_E4typeE(ptr noundef nonnull align 4 dereferenceable(4) %2) #7
  %3 = load { i64, i64 }, ptr %func.addr, align 8
  %memptr.adj = extractvalue { i64, i64 } %3, 1
  %4 = getelementptr inbounds i8, ptr %call, i64 %memptr.adj
  %memptr.ptr = extractvalue { i64, i64 } %3, 0
  %5 = and i64 %memptr.ptr, 1
  %memptr.isvirtual = icmp ne i64 %5, 0
  br i1 %memptr.isvirtual, label %memptr.virtual, label %memptr.nonvirtual

memptr.virtual:                                   ; preds = %entry
  %vtable = load ptr, ptr %4, align 8
  %6 = sub i64 %memptr.ptr, 1
  %7 = getelementptr i8, ptr %vtable, i64 %6, !nosanitize !5
  %memptr.virtualfn = load ptr, ptr %7, align 8, !nosanitize !5
  br label %memptr.end

memptr.nonvirtual:                                ; preds = %entry
  %memptr.nonvirtualfn = inttoptr i64 %memptr.ptr to ptr
  br label %memptr.end

memptr.end:                                       ; preds = %memptr.nonvirtual, %memptr.virtual
  %8 = phi ptr [ %memptr.virtualfn, %memptr.virtual ], [ %memptr.nonvirtualfn, %memptr.nonvirtual ]
  call void %8(ptr noundef nonnull align 4 dereferenceable(4) %4)
  ret void
}

; Function Attrs: mustprogress nounwind uwtable
define internal noundef nonnull align 8 dereferenceable(16) ptr @_ZN5eastl7forwardIRMZ40TestFixedFunctionPointerToMemberFunctionvE11TestVoidRetFvvEEEOT_RNS_16remove_referenceIS5_E4typeE(ptr noundef nonnull align 8 dereferenceable(16) %x) #1 {
entry:
  %x.addr = alloca ptr, align 8
  store ptr %x, ptr %x.addr, align 8
  %0 = load ptr, ptr %x.addr, align 8
  ret ptr %0
}

; Function Attrs: noreturn nounwind uwtable
define linkonce_odr hidden void @__clang_call_terminate(ptr noundef %0) #4 comdat {
  %2 = call ptr @__cxa_begin_catch(ptr %0) #7
  call void @_ZSt9terminatev() #8
  unreachable
}

; Function Attrs: mustprogress nounwind uwtable
define internal noundef nonnull align 8 dereferenceable(16) ptr @_ZNK5eastl8internal15functor_storageILi16EE17GetStorageTypeRefIMZ40TestFixedFunctionPointerToMemberFunctionvE11TestVoidRetFvvEEERT_v(ptr noundef nonnull align 8 dereferenceable(16) %this) #1 align 2 {
entry:
  %this.addr = alloca ptr, align 8
  store ptr %this, ptr %this.addr, align 8
  %this1 = load ptr, ptr %this.addr, align 8
  %0 = getelementptr inbounds %"struct.eastl::internal::functor_storage.28", ptr %this1, i32 0, i32 0
  %arrayidx = getelementptr inbounds [16 x i8], ptr %0, i64 0, i64 0
  ret ptr %arrayidx
}

; Function Attrs: mustprogress uwtable
define internal void @_ZN5eastl6invokeIRMZ40TestFixedFunctionPointerToMemberFunctionvE11TestVoidRetFvvEJRS1_EEEDcOT_DpOT0_(ptr noundef nonnull align 8 dereferenceable(16) %func, ptr noundef nonnull align 4 dereferenceable(4) %args) #0 {
entry:
  %func.addr = alloca ptr, align 8
  %args.addr = alloca ptr, align 8
  %coerce = alloca { i64, i64 }, align 8
  store ptr %func, ptr %func.addr, align 8
  store ptr %args, ptr %args.addr, align 8
  %0 = load ptr, ptr %func.addr, align 8
  %call = call noundef nonnull align 8 dereferenceable(16) ptr @_ZN5eastl7forwardIRMZ40TestFixedFunctionPointerToMemberFunctionvE11TestVoidRetFvvEEEOT_RNS_16remove_referenceIS5_E4typeE(ptr noundef nonnull align 8 dereferenceable(16) %0) #7
  %1 = load { i64, i64 }, ptr %call, align 8
  %2 = load ptr, ptr %args.addr, align 8
  %call1 = call noundef nonnull align 4 dereferenceable(4) ptr @_ZN5eastl7forwardIRZ40TestFixedFunctionPointerToMemberFunctionvE11TestVoidRetEEOT_RNS_16remove_referenceIS3_E4typeE(ptr noundef nonnull align 4 dereferenceable(4) %2) #7
  store { i64, i64 } %1, ptr %coerce, align 8
  %3 = getelementptr inbounds { i64, i64 }, ptr %coerce, i32 0, i32 0
  %4 = load i64, ptr %3, align 8
  %5 = getelementptr inbounds { i64, i64 }, ptr %coerce, i32 0, i32 1
  %6 = load i64, ptr %5, align 8
  call void @_ZN5eastl11invoke_implIFvvEZ40TestFixedFunctionPointerToMemberFunctionvE11TestVoidRetRS2_JEEENS_9enable_ifIXsr10is_base_ofIT0_NS_5decayIT1_E4typeEEE5valueEDTcldsclsr5eastlE7forwardIS7_Efp0_Efp_spclsr5eastlE7forwardIT2_Efp1_EEEE4typeEMS5_T_OS7_DpOSA_(i64 %4, i64 %6, ptr noundef nonnull align 4 dereferenceable(4) %call1)
  ret void
}

; Function Attrs: mustprogress nounwind uwtable
define internal noundef nonnull align 4 dereferenceable(4) ptr @_ZN5eastl7forwardIRZ40TestFixedFunctionPointerToMemberFunctionvE11TestVoidRetEEOT_RNS_16remove_referenceIS3_E4typeE(ptr noundef nonnull align 4 dereferenceable(4) %x) #1 {
entry:
  %x.addr = alloca ptr, align 8
  store ptr %x, ptr %x.addr, align 8
  %0 = load ptr, ptr %x.addr, align 8
  ret ptr %0
}

; Function Attrs: mustprogress nounwind uwtable
define internal noundef ptr @_ZN5eastl8internal20function_base_detailILi16EE21function_manager_baseIMZ40TestFixedFunctionPointerToMemberFunctionvE11TestVoidRetFvvEvE13GetFunctorPtrERKNS0_15functor_storageILi16EEE(ptr noundef nonnull align 8 dereferenceable(16) %storage) #1 align 2 personality ptr @__gxx_personality_v0 {
entry:
  %storage.addr = alloca ptr, align 8
  store ptr %storage, ptr %storage.addr, align 8
  %0 = load ptr, ptr %storage.addr, align 8
  %call = invoke noundef nonnull align 8 dereferenceable(16) ptr @_ZNK5eastl8internal15functor_storageILi16EE17GetStorageTypeRefIMZ40TestFixedFunctionPointerToMemberFunctionvE11TestVoidRetFvvEEERT_v(ptr noundef nonnull align 8 dereferenceable(16) %0)
          to label %invoke.cont unwind label %terminate.lpad

invoke.cont:                                      ; preds = %entry
  ret ptr %call

terminate.lpad:                                   ; preds = %entry
  %1 = landingpad { ptr, i32 }
          catch ptr null
  %2 = extractvalue { ptr, i32 } %1, 0
  call void @__clang_call_terminate(ptr %2) #8
  unreachable
}

; Function Attrs: mustprogress uwtable
define internal void @_ZN5eastl8internal20function_base_detailILi16EE16function_managerIMZ40TestFixedFunctionPointerToMemberFunctionvE11TestVoidRetFvvEvJRS4_EE7InvokerES7_RKNS0_15functor_storageILi16EEE(ptr noundef nonnull align 4 dereferenceable(4) %args, ptr noundef nonnull align 8 dereferenceable(16) %functor) #0 align 2 {
entry:
  %args.addr = alloca ptr, align 8
  %functor.addr = alloca ptr, align 8
  store ptr %args, ptr %args.addr, align 8
  store ptr %functor, ptr %functor.addr, align 8
  %0 = load ptr, ptr %functor.addr, align 8
  %call = call noundef ptr @_ZN5eastl8internal20function_base_detailILi16EE21function_manager_baseIMZ40TestFixedFunctionPointerToMemberFunctionvE11TestVoidRetFvvEvE13GetFunctorPtrERKNS0_15functor_storageILi16EEE(ptr noundef nonnull align 8 dereferenceable(16) %0) #7
  %1 = load ptr, ptr %args.addr, align 8
  %call1 = call noundef nonnull align 4 dereferenceable(4) ptr @_ZN5eastl7forwardIRZ40TestFixedFunctionPointerToMemberFunctionvE11TestVoidRetEEOT_RNS_16remove_referenceIS3_E4typeE(ptr noundef nonnull align 4 dereferenceable(4) %1) #7
  call void @_ZN5eastl6invokeIRMZ40TestFixedFunctionPointerToMemberFunctionvE11TestVoidRetFvvEJRS1_EEEDcOT_DpOT0_(ptr noundef nonnull align 8 dereferenceable(16) %call, ptr noundef nonnull align 4 dereferenceable(4) %call1)
  ret void
}