; Function Attrs: mustprogress uwtable
define internal void @_ZN5eastl8internal20function_base_detailILi16EE16function_managerIMZ40TestFixedFunctionPointerToMemberFunctionvE11TestVoidRetFvvEvJRS4_EE7InvokerES7_RKNS0_15functor_storageILi16EEE(ptr noundef nonnull align 4 dereferenceable(4) %args, ptr noundef nonnull readonly align 8 captures(none) dereferenceable(16) %functor) #0 align 2 personality ptr @__gxx_personality_v0 {
entry:
  %call.val = load i64, ptr %functor, align 8
  %0 = getelementptr inbounds nuw i8, ptr %functor, i64 8
  %call.val1 = load i64, ptr %0, align 8
  %1 = getelementptr inbounds i8, ptr %args, i64 %call.val1
  %2 = and i64 %call.val, 1
  %memptr.isvirtual.not.i.i = icmp eq i64 %2, 0
  br i1 %memptr.isvirtual.not.i.i, label %memptr.nonvirtual.i.i, label %memptr.virtual.i.i

memptr.virtual.i.i:                               ; preds = %entry
  %vtable.i.i = load ptr, ptr %1, align 8
  %3 = getelementptr i8, ptr %vtable.i.i, i64 %call.val
  %4 = getelementptr i8, ptr %3, i64 -1
  %memptr.virtualfn.i.i = load ptr, ptr %4, align 8, !nosanitize !11
  br label %_ZN5eastl6invokeIRMZ40TestFixedFunctionPointerToMemberFunctionvE11TestVoidRetFvvEJRS1_EEEDcOT_DpOT0_.exit

memptr.nonvirtual.i.i:                            ; preds = %entry
  %memptr.nonvirtualfn.i.i = inttoptr i64 %call.val to ptr
  br label %_ZN5eastl6invokeIRMZ40TestFixedFunctionPointerToMemberFunctionvE11TestVoidRetFvvEJRS1_EEEDcOT_DpOT0_.exit

_ZN5eastl6invokeIRMZ40TestFixedFunctionPointerToMemberFunctionvE11TestVoidRetFvvEJRS1_EEEDcOT_DpOT0_.exit: ; preds = %memptr.virtual.i.i, %memptr.nonvirtual.i.i
  %5 = phi ptr [ %memptr.virtualfn.i.i, %memptr.virtual.i.i ], [ %memptr.nonvirtualfn.i.i, %memptr.nonvirtual.i.i ]
  tail call void %5(ptr noundef nonnull align 4 dereferenceable(4) %1)
  ret void
}